; Function Attrs: mustprogress nounwind uwtable
define hidden void @_ZN3ue220ComponentAlternationD2Ev(ptr noundef nonnull align 8 dereferenceable(40) %this) unnamed_addr #2 align 2 personality ptr @__gxx_personality_v0 {
entry:
  store ptr getelementptr inbounds ({ [17 x ptr] }, ptr @_ZTVN3ue220ComponentAlternationE, i64 0, i32 0, i64 2), ptr %this, align 8
  %children = getelementptr inbounds i8, ptr %this, i64 16
  %0 = load ptr, ptr %children, align 8
  %_M_finish.i = getelementptr inbounds i8, ptr %this, i64 24
  %1 = load ptr, ptr %_M_finish.i, align 8
  %cmp.not3.i.i.i.i = icmp eq ptr %0, %1
  br i1 %cmp.not3.i.i.i.i, label %invoke.cont.i, label %for.body.i.i.i.i

for.body.i.i.i.i:                                 ; preds = %entry, %_ZSt8_DestroyISt10unique_ptrIN3ue29ComponentESt14default_deleteIS2_EEEvPT_.exit.i.i.i.i
  %__first.addr.04.i.i.i.i = phi ptr [ %incdec.ptr.i.i.i.i, %_ZSt8_DestroyISt10unique_ptrIN3ue29ComponentESt14default_deleteIS2_EEEvPT_.exit.i.i.i.i ], [ %0, %entry ]
  %2 = load ptr, ptr %__first.addr.04.i.i.i.i, align 8
  %cmp.not.i.i.i.i.i.i = icmp eq ptr %2, null
  br i1 %cmp.not.i.i.i.i.i.i, label %_ZSt8_DestroyISt10unique_ptrIN3ue29ComponentESt14default_deleteIS2_EEEvPT_.exit.i.i.i.i, label %_ZNKSt14default_deleteIN3ue29ComponentEEclEPS1_.exit.i.i.i.i.i.i

_ZNKSt14default_deleteIN3ue29ComponentEEclEPS1_.exit.i.i.i.i.i.i: ; preds = %for.body.i.i.i.i
  %vtable.i.i.i.i.i.i.i = load ptr, ptr %2, align 8
  %vfn.i.i.i.i.i.i.i = getelementptr inbounds i8, ptr %vtable.i.i.i.i.i.i.i, i64 8
  %3 = load ptr, ptr %vfn.i.i.i.i.i.i.i, align 8
  tail call void %3(ptr noundef nonnull align 8 dereferenceable(16) %2) #11
  br label %_ZSt8_DestroyISt10unique_ptrIN3ue29ComponentESt14default_deleteIS2_EEEvPT_.exit.i.i.i.i

_ZSt8_DestroyISt10unique_ptrIN3ue29ComponentESt14default_deleteIS2_EEEvPT_.exit.i.i.i.i: ; preds = %_ZNKSt14default_deleteIN3ue29ComponentEEclEPS1_.exit.i.i.i.i.i.i, %for.body.i.i.i.i
  store ptr null, ptr %__first.addr.04.i.i.i.i, align 8
  %incdec.ptr.i.i.i.i = getelementptr inbounds i8, ptr %__first.addr.04.i.i.i.i, i64 8
  %cmp.not.i.i.i.i = icmp eq ptr %incdec.ptr.i.i.i.i, %1
  br i1 %cmp.not.i.i.i.i, label %invoke.contthread-pre-split.i, label %for.body.i.i.i.i, !llvm.loop !5

invoke.contthread-pre-split.i:                    ; preds = %_ZSt8_DestroyISt10unique_ptrIN3ue29ComponentESt14default_deleteIS2_EEEvPT_.exit.i.i.i.i
  %.pr.i = load ptr, ptr %children, align 8
  br label %invoke.cont.i

invoke.cont.i:                                    ; preds = %invoke.contthread-pre-split.i, %entry
  %4 = phi ptr [ %.pr.i, %invoke.contthread-pre-split.i ], [ %0, %entry ]
  %tobool.not.i.i.i = icmp eq ptr %4, null
  br i1 %tobool.not.i.i.i, label %_ZNSt6vectorISt10unique_ptrIN3ue29ComponentESt14default_deleteIS2_EESaIS5_EED2Ev.exit, label %if.then.i.i.i

if.then.i.i.i:                                    ; preds = %invoke.cont.i
  tail call void @_ZdlPv(ptr noundef nonnull %4) #12
  br label %_ZNSt6vectorISt10unique_ptrIN3ue29ComponentESt14default_deleteIS2_EESaIS5_EED2Ev.exit

_ZNSt6vectorISt10unique_ptrIN3ue29ComponentESt14default_deleteIS2_EESaIS5_EED2Ev.exit: ; preds = %invoke.cont.i, %if.then.i.i.i
  tail call void @_ZN3ue29ComponentD2Ev(ptr noundef nonnull align 8 dereferenceable(16) %this) #11
  ret void
}